target datalayout = "e-m:e-p270:32:32-p271:32:32-p272:64:64-i64:64-i128:128-f80:128-n8:16:32:64-S128"
target triple = "x86_64-pc-linux-gnu"

%struct.Gia_ManTer_t_ = type { ptr, i32, i32, ptr, ptr, ptr, ptr, ptr, ptr, i32, ptr, ptr, ptr, ptr }
%struct.Gia_Man_t_ = type { ptr, ptr, i32, i32, i32, i32, ptr, ptr, i32, i32, i32, ptr, ptr, %struct.Vec_Int_t_, %struct.Vec_Int_t_, i32, i32, i32, %struct.Vec_Int_t_, ptr, ptr, ptr, i32, i32, i32, i32, ptr, ptr, ptr, ptr, ptr, i32, i32, ptr, i32, ptr, ptr, ptr, ptr, ptr, ptr, ptr, ptr, ptr, ptr, ptr, ptr, ptr, ptr, ptr, ptr, ptr, ptr, %struct.Vec_Int_t_, %struct.Vec_Int_t_, ptr, ptr, ptr, ptr, ptr, ptr, ptr, ptr, ptr, ptr, ptr, ptr, ptr, ptr, ptr, ptr, ptr, ptr, ptr, ptr, ptr, i32, float, float, ptr, ptr, i32, ptr, ptr, ptr, ptr, ptr, ptr, ptr, ptr, ptr, ptr, ptr, ptr, ptr, ptr, ptr, i64, i64, ptr, ptr, i32, i32, i32, i32, i32, i32, i32, i32, i32, i32, i32, i32, ptr, ptr, ptr, ptr, ptr, ptr, ptr, ptr, i32, i32, i32, ptr, i32, i32, ptr, ptr, ptr, ptr, ptr, ptr, i32, i32, ptr, %struct.Vec_Int_t_, %struct.Vec_Int_t_, %struct.Vec_Int_t_, ptr, ptr, ptr }
%struct.Vec_Int_t_ = type { i32, i32, ptr }

; Function Attrs: nounwind uwtable
define internal void @Vec_IntGrow(ptr noundef %0, i32 noundef %1) #0 {
  %3 = alloca ptr, align 8
  %4 = alloca i32, align 4
  store ptr %0, ptr %3, align 8
  store i32 %1, ptr %4, align 4
  %5 = load ptr, ptr %3, align 8
  %6 = getelementptr inbounds %struct.Vec_Int_t_, ptr %5, i32 0, i32 0
  %7 = load i32, ptr %6, align 8
  %8 = load i32, ptr %4, align 4
  %9 = icmp sge i32 %7, %8
  br i1 %9, label %10, label %11

10:                                               ; preds = %2
  br label %36

11:                                               ; preds = %2
  %12 = load ptr, ptr %3, align 8
  %13 = getelementptr inbounds %struct.Vec_Int_t_, ptr %12, i32 0, i32 2
  %14 = load ptr, ptr %13, align 8
  %15 = icmp ne ptr %14, null
  br i1 %15, label %16, label %24

16:                                               ; preds = %11
  %17 = load ptr, ptr %3, align 8
  %18 = getelementptr inbounds %struct.Vec_Int_t_, ptr %17, i32 0, i32 2
  %19 = load ptr, ptr %18, align 8
  %20 = load i32, ptr %4, align 4
  %21 = sext i32 %20 to i64
  %22 = mul i64 4, %21
  %23 = call ptr @realloc(ptr noundef %19, i64 noundef %22) #13
  br label %29

24:                                               ; preds = %11
  %25 = load i32, ptr %4, align 4
  %26 = sext i32 %25 to i64
  %27 = mul i64 4, %26
  %28 = call noalias ptr @malloc(i64 noundef %27) #10
  br label %29

29:                                               ; preds = %24, %16
  %30 = phi ptr [ %23, %16 ], [ %28, %24 ]
  %31 = load ptr, ptr %3, align 8
  %32 = getelementptr inbounds %struct.Vec_Int_t_, ptr %31, i32 0, i32 2
  store ptr %30, ptr %32, align 8
  %33 = load i32, ptr %4, align 4
  %34 = load ptr, ptr %3, align 8
  %35 = getelementptr inbounds %struct.Vec_Int_t_, ptr %34, i32 0, i32 0
  store i32 %33, ptr %35, align 8
  br label %36

36:                                               ; preds = %29, %10
  ret void
}

; Function Attrs: nounwind uwtable
define internal void @Gia_ManTerSimInfoSet(ptr noundef %0, i32 noundef %1, i32 noundef %2) #0 {
  %4 = alloca ptr, align 8
  %5 = alloca i32, align 4
  %6 = alloca i32, align 4
  store ptr %0, ptr %4, align 8
  store i32 %1, ptr %5, align 4
  store i32 %2, ptr %6, align 4
  %7 = load ptr, ptr %4, align 8
  %8 = load i32, ptr %5, align 4
  %9 = call i32 @Gia_ManTerSimInfoGet(ptr noundef %7, i32 noundef %8)
  %10 = load i32, ptr %6, align 4
  %11 = xor i32 %10, %9
  store i32 %11, ptr %6, align 4
  %12 = load i32, ptr %6, align 4
  %13 = load i32, ptr %5, align 4
  %14 = and i32 %13, 15
  %15 = shl i32 %14, 1
  %16 = shl i32 %12, %15
  %17 = load ptr, ptr %4, align 8
  %18 = load i32, ptr %5, align 4
  %19 = ashr i32 %18, 4
  %20 = sext i32 %19 to i64
  %21 = getelementptr inbounds i32, ptr %17, i64 %20
  %22 = load i32, ptr %21, align 4
  %23 = xor i32 %22, %16
  store i32 %23, ptr %21, align 4
  ret void
}

; Function Attrs: nounwind uwtable
define internal i32 @Gia_ManPiNum(ptr noundef %0) #0 {
  %2 = alloca ptr, align 8
  store ptr %0, ptr %2, align 8
  %3 = load ptr, ptr %2, align 8
  %4 = getelementptr inbounds %struct.Gia_Man_t_, ptr %3, i32 0, i32 11
  %5 = load ptr, ptr %4, align 8
  %6 = call i32 @Vec_IntSize(ptr noundef %5)
  %7 = load ptr, ptr %2, align 8
  %8 = getelementptr inbounds %struct.Gia_Man_t_, ptr %7, i32 0, i32 2
  %9 = load i32, ptr %8, align 8
  %10 = sub nsw i32 %6, %9
  ret i32 %10
}

; Function Attrs: nounwind uwtable
define internal i32 @Vec_IntEntry(ptr noundef %0, i32 noundef %1) #0 {
  %3 = alloca ptr, align 8
  %4 = alloca i32, align 4
  store ptr %0, ptr %3, align 8
  store i32 %1, ptr %4, align 4
  %5 = load ptr, ptr %3, align 8
  %6 = getelementptr inbounds %struct.Vec_Int_t_, ptr %5, i32 0, i32 2
  %7 = load ptr, ptr %6, align 8
  %8 = load i32, ptr %4, align 4
  %9 = sext i32 %8 to i64
  %10 = getelementptr inbounds i32, ptr %7, i64 %9
  %11 = load i32, ptr %10, align 4
  ret i32 %11
}

; Function Attrs: nounwind uwtable
define internal i32 @Vec_IntSize(ptr noundef %0) #0 {
  %2 = alloca ptr, align 8
  store ptr %0, ptr %2, align 8
  %3 = load ptr, ptr %2, align 8
  %4 = getelementptr inbounds %struct.Vec_Int_t_, ptr %3, i32 0, i32 1
  %5 = load i32, ptr %4, align 4
  ret i32 %5
}

; Function Attrs: nounwind uwtable
define internal void @Vec_IntPush(ptr noundef %0, i32 noundef %1) #0 {
  %3 = alloca ptr, align 8
  %4 = alloca i32, align 4
  store ptr %0, ptr %3, align 8
  store i32 %1, ptr %4, align 4
  %5 = load ptr, ptr %3, align 8
  %6 = getelementptr inbounds %struct.Vec_Int_t_, ptr %5, i32 0, i32 1
  %7 = load i32, ptr %6, align 4
  %8 = load ptr, ptr %3, align 8
  %9 = getelementptr inbounds %struct.Vec_Int_t_, ptr %8, i32 0, i32 0
  %10 = load i32, ptr %9, align 8
  %11 = icmp eq i32 %7, %10
  br i1 %11, label %12, label %26

12:                                               ; preds = %2
  %13 = load ptr, ptr %3, align 8
  %14 = getelementptr inbounds %struct.Vec_Int_t_, ptr %13, i32 0, i32 0
  %15 = load i32, ptr %14, align 8
  %16 = icmp slt i32 %15, 16
  br i1 %16, label %17, label %19

17:                                               ; preds = %12
  %18 = load ptr, ptr %3, align 8
  call void @Vec_IntGrow(ptr noundef %18, i32 noundef 16)
  br label %25

19:                                               ; preds = %12
  %20 = load ptr, ptr %3, align 8
  %21 = load ptr, ptr %3, align 8
  %22 = getelementptr inbounds %struct.Vec_Int_t_, ptr %21, i32 0, i32 0
  %23 = load i32, ptr %22, align 8
  %24 = mul nsw i32 2, %23
  call void @Vec_IntGrow(ptr noundef %20, i32 noundef %24)
  br label %25

25:                                               ; preds = %19, %17
  br label %26

26:                                               ; preds = %25, %2
  %27 = load i32, ptr %4, align 4
  %28 = load ptr, ptr %3, align 8
  %29 = getelementptr inbounds %struct.Vec_Int_t_, ptr %28, i32 0, i32 2
  %30 = load ptr, ptr %29, align 8
  %31 = load ptr, ptr %3, align 8
  %32 = getelementptr inbounds %struct.Vec_Int_t_, ptr %31, i32 0, i32 1
  %33 = load i32, ptr %32, align 4
  %34 = add nsw i32 %33, 1
  store i32 %34, ptr %32, align 4
  %35 = sext i32 %33 to i64
  %36 = getelementptr inbounds i32, ptr %30, i64 %35
  store i32 %27, ptr %36, align 4
  ret void
}

; Function Attrs: nounwind uwtable
define internal i32 @Gia_ManTerSimInfoGet(ptr noundef %0, i32 noundef %1) #0 {
  %3 = alloca ptr, align 8
  %4 = alloca i32, align 4
  store ptr %0, ptr %3, align 8
  store i32 %1, ptr %4, align 4
  %5 = load ptr, ptr %3, align 8
  %6 = load i32, ptr %4, align 4
  %7 = ashr i32 %6, 4
  %8 = sext i32 %7 to i64
  %9 = getelementptr inbounds i32, ptr %5, i64 %8
  %10 = load i32, ptr %9, align 4
  %11 = load i32, ptr %4, align 4
  %12 = and i32 %11, 15
  %13 = shl i32 %12, 1
  %14 = lshr i32 %10, %13
  %15 = and i32 3, %14
  ret i32 %15
}

; Function Attrs: nounwind uwtable
define internal i32 @Gia_ManRegNum(ptr noundef %0) #0 {
  %2 = alloca ptr, align 8
  store ptr %0, ptr %2, align 8
  %3 = load ptr, ptr %2, align 8
  %4 = getelementptr inbounds %struct.Gia_Man_t_, ptr %3, i32 0, i32 2
  %5 = load i32, ptr %4, align 8
  ret i32 %5
}

; Function Attrs: nounwind uwtable
define i32 @Gia_ManTerRetire2(ptr noundef %0, ptr noundef %1) #0 {
  %3 = alloca ptr, align 8
  %4 = alloca ptr, align 8
  %5 = alloca i32, align 4
  %6 = alloca i32, align 4
  %7 = alloca i32, align 4
  store ptr %0, ptr %3, align 8
  store ptr %1, ptr %4, align 8
  store i32 -1, ptr %7, align 4
  store i32 0, ptr %5, align 4
  br label %8

8:                                                ; preds = %48, %2
  %9 = load i32, ptr %5, align 4
  %10 = load ptr, ptr %3, align 8
  %11 = getelementptr inbounds %struct.Gia_ManTer_t_, ptr %10, i32 0, i32 0
  %12 = load ptr, ptr %11, align 8
  %13 = call i32 @Gia_ManRegNum(ptr noundef %12)
  %14 = icmp slt i32 %9, %13
  br i1 %14, label %15, label %51

15:                                               ; preds = %8
  %16 = load ptr, ptr %4, align 8
  %17 = load i32, ptr %5, align 4
  %18 = call i32 @Gia_ManTerSimInfoGet(ptr noundef %16, i32 noundef %17)
  %19 = icmp ne i32 %18, 3
  br i1 %19, label %20, label %47

20:                                               ; preds = %15
  %21 = load ptr, ptr %3, align 8
  %22 = getelementptr inbounds %struct.Gia_ManTer_t_, ptr %21, i32 0, i32 6
  %23 = load ptr, ptr %22, align 8
  %24 = load i32, ptr %5, align 4
  %25 = sext i32 %24 to i64
  %26 = getelementptr inbounds i8, ptr %23, i64 %25
  %27 = load i8, ptr %26, align 1
  %28 = icmp ne i8 %27, 0
  br i1 %28, label %47, label %29

29:                                               ; preds = %20
  %30 = load i32, ptr %7, align 4
  %31 = load ptr, ptr %3, align 8
  %32 = getelementptr inbounds %struct.Gia_ManTer_t_, ptr %31, i32 0, i32 8
  %33 = load ptr, ptr %32, align 8
  %34 = load i32, ptr %5, align 4
  %35 = sext i32 %34 to i64
  %36 = getelementptr inbounds i32, ptr %33, i64 %35
  %37 = load i32, ptr %36, align 4
  %38 = icmp slt i32 %30, %37
  br i1 %38, label %39, label %47

39:                                               ; preds = %29
  %40 = load ptr, ptr %3, align 8
  %41 = getelementptr inbounds %struct.Gia_ManTer_t_, ptr %40, i32 0, i32 8
  %42 = load ptr, ptr %41, align 8
  %43 = load i32, ptr %5, align 4
  %44 = sext i32 %43 to i64
  %45 = getelementptr inbounds i32, ptr %42, i64 %44
  %46 = load i32, ptr %45, align 4
  store i32 %46, ptr %7, align 4
  br label %47

47:                                               ; preds = %39, %29, %20, %15
  br label %48

48:                                               ; preds = %47
  %49 = load i32, ptr %5, align 4
  %50 = add nsw i32 %49, 1
  store i32 %50, ptr %5, align 4
  br label %8, !llvm.loop !11

51:                                               ; preds = %8
  store i32 0, ptr %5, align 4
  br label %52

52:                                               ; preds = %99, %51
  %53 = load i32, ptr %5, align 4
  %54 = load ptr, ptr %3, align 8
  %55 = getelementptr inbounds %struct.Gia_ManTer_t_, ptr %54, i32 0, i32 0
  %56 = load ptr, ptr %55, align 8
  %57 = call i32 @Gia_ManRegNum(ptr noundef %56)
  %58 = icmp slt i32 %53, %57
  br i1 %58, label %59, label %102

59:                                               ; preds = %52
  %60 = load ptr, ptr %4, align 8
  %61 = load i32, ptr %5, align 4
  %62 = call i32 @Gia_ManTerSimInfoGet(ptr noundef %60, i32 noundef %61)
  %63 = icmp ne i32 %62, 3
  br i1 %63, label %64, label %98

64:                                               ; preds = %59
  %65 = load ptr, ptr %3, align 8
  %66 = getelementptr inbounds %struct.Gia_ManTer_t_, ptr %65, i32 0, i32 6
  %67 = load ptr, ptr %66, align 8
  %68 = load i32, ptr %5, align 4
  %69 = sext i32 %68 to i64
  %70 = getelementptr inbounds i8, ptr %67, i64 %69
  %71 = load i8, ptr %70, align 1
  %72 = icmp ne i8 %71, 0
  br i1 %72, label %98, label %73

73:                                               ; preds = %64
  %74 = load i32, ptr %7, align 4
  %75 = load ptr, ptr %3, align 8
  %76 = getelementptr inbounds %struct.Gia_ManTer_t_, ptr %75, i32 0, i32 8
  %77 = load ptr, ptr %76, align 8
  %78 = load i32, ptr %5, align 4
  %79 = sext i32 %78 to i64
  %80 = getelementptr inbounds i32, ptr %77, i64 %79
  %81 = load i32, ptr %80, align 4
  %82 = icmp eq i32 %74, %81
  br i1 %82, label %83, label %98

83:                                               ; preds = %73
  %84 = load ptr, ptr %3, align 8
  %85 = getelementptr inbounds %struct.Gia_ManTer_t_, ptr %84, i32 0, i32 6
  %86 = load ptr, ptr %85, align 8
  %87 = load i32, ptr %5, align 4
  %88 = sext i32 %87 to i64
  %89 = getelementptr inbounds i8, ptr %86, i64 %88
  store i8 1, ptr %89, align 1
  %90 = load ptr, ptr %3, align 8
  %91 = getelementptr inbounds %struct.Gia_ManTer_t_, ptr %90, i32 0, i32 5
  %92 = load ptr, ptr %91, align 8
  %93 = load i32, ptr %5, align 4
  call void @Vec_IntPush(ptr noundef %92, i32 noundef %93)
  %94 = load i32, ptr %7, align 4
  %95 = icmp eq i32 %94, 0
  br i1 %95, label %96, label %97

96:                                               ; preds = %83
  br label %102

97:                                               ; preds = %83
  br label %98

98:                                               ; preds = %97, %73, %64, %59
  br label %99

99:                                               ; preds = %98
  %100 = load i32, ptr %5, align 4
  %101 = add nsw i32 %100, 1
  store i32 %101, ptr %5, align 4
  br label %52, !llvm.loop !12

102:                                              ; preds = %96, %52
  store i32 0, ptr %5, align 4
  br label %103

103:                                              ; preds = %128, %102
  %104 = load i32, ptr %5, align 4
  %105 = load ptr, ptr %3, align 8
  %106 = getelementptr inbounds %struct.Gia_ManTer_t_, ptr %105, i32 0, i32 5
  %107 = load ptr, ptr %106, align 8
  %108 = call i32 @Vec_IntSize(ptr noundef %107)
  %109 = icmp slt i32 %104, %108
  br i1 %109, label %110, label %116

110:                                              ; preds = %103
  %111 = load ptr, ptr %3, align 8
  %112 = getelementptr inbounds %struct.Gia_ManTer_t_, ptr %111, i32 0, i32 5
  %113 = load ptr, ptr %112, align 8
  %114 = load i32, ptr %5, align 4
  %115 = call i32 @Vec_IntEntry(ptr noundef %113, i32 noundef %114)
  store i32 %115, ptr %6, align 4
  br label %116

116:                                              ; preds = %110, %103
  %117 = phi i1 [ false, %103 ], [ true, %110 ]
  br i1 %117, label %118, label %131

118:                                              ; preds = %116
  %119 = load ptr, ptr %3, align 8
  %120 = getelementptr inbounds %struct.Gia_ManTer_t_, ptr %119, i32 0, i32 12
  %121 = load ptr, ptr %120, align 8
  %122 = load ptr, ptr %3, align 8
  %123 = getelementptr inbounds %struct.Gia_ManTer_t_, ptr %122, i32 0, i32 0
  %124 = load ptr, ptr %123, align 8
  %125 = call i32 @Gia_ManPiNum(ptr noundef %124)
  %126 = load i32, ptr %6, align 4
  %127 = add nsw i32 %125, %126
  call void @Gia_ManTerSimInfoSet(ptr noundef %121, i32 noundef %127, i32 noundef 3)
  br label %128

128:                                              ; preds = %118
  %129 = load i32, ptr %5, align 4
  %130 = add nsw i32 %129, 1
  store i32 %130, ptr %5, align 4
  br label %103, !llvm.loop !13

131:                                              ; preds = %116
  %132 = load ptr, ptr %3, align 8
  %133 = getelementptr inbounds %struct.Gia_ManTer_t_, ptr %132, i32 0, i32 5
  %134 = load ptr, ptr %133, align 8
  %135 = call i32 @Vec_IntSize(ptr noundef %134)
  ret i32 %135
}