; Function Attrs: nounwind uwtable
define i32 @Gia_ManTerRetire2(ptr noundef readonly captures(none) %0, ptr noundef readonly captures(none) %1) local_unnamed_addr #0 {
  %3 = load ptr, ptr %0, align 8
  %4 = getelementptr i8, ptr %3, i64 16
  %.val43 = load i32, ptr %4, align 8
  %5 = icmp sgt i32 %.val43, 0
  br i1 %5, label %.lr.ph, label %Vec_IntPush.exit._crit_edge

.lr.ph:                                           ; preds = %2
  %6 = getelementptr inbounds nuw i8, ptr %0, i64 40
  %7 = getelementptr inbounds nuw i8, ptr %0, i64 56
  %wide.trip.count = zext nneg i32 %.val43 to i64
  br label %12

.lr.ph51:                                         ; preds = %29
  %8 = getelementptr inbounds nuw i8, ptr %0, i64 40
  %9 = getelementptr inbounds nuw i8, ptr %0, i64 56
  %10 = getelementptr inbounds nuw i8, ptr %0, i64 32
  %11 = icmp eq i32 %.1, 0
  br label %30

12:                                               ; preds = %.lr.ph, %29
  %indvars.iv = phi i64 [ 0, %.lr.ph ], [ %indvars.iv.next, %29 ]
  %.048 = phi i32 [ -1, %.lr.ph ], [ %.1, %29 ]
  %13 = lshr i64 %indvars.iv, 4
  %14 = and i64 %13, 268435455
  %15 = getelementptr inbounds nuw i32, ptr %1, i64 %14
  %16 = load i32, ptr %15, align 4
  %indvars.iv.tr = trunc i64 %indvars.iv to i32
  %17 = shl i32 %indvars.iv.tr, 1
  %18 = and i32 %17, 30
  %19 = lshr i32 %16, %18
  %20 = and i32 %19, 3
  %.not39 = icmp eq i32 %20, 3
  br i1 %.not39, label %29, label %21

21:                                               ; preds = %12
  %22 = load ptr, ptr %6, align 8
  %23 = getelementptr inbounds nuw i8, ptr %22, i64 %indvars.iv
  %24 = load i8, ptr %23, align 1
  %.not40 = icmp eq i8 %24, 0
  br i1 %.not40, label %25, label %29

25:                                               ; preds = %21
  %26 = load ptr, ptr %7, align 8
  %27 = getelementptr inbounds nuw i32, ptr %26, i64 %indvars.iv
  %28 = load i32, ptr %27, align 4
  %spec.select = tail call i32 @llvm.smax.i32(i32 %.048, i32 %28)
  br label %29

29:                                               ; preds = %25, %12, %21
  %.1 = phi i32 [ %.048, %21 ], [ %.048, %12 ], [ %spec.select, %25 ]
  %indvars.iv.next = add nuw nsw i64 %indvars.iv, 1
  %exitcond.not = icmp eq i64 %indvars.iv.next, %wide.trip.count
  br i1 %exitcond.not, label %.lr.ph51, label %12, !llvm.loop !11

30:                                               ; preds = %.lr.ph51, %83
  %31 = phi ptr [ %3, %.lr.ph51 ], [ %84, %83 ]
  %indvars.iv59 = phi i64 [ 0, %.lr.ph51 ], [ %indvars.iv.next60, %83 ]
  %32 = trunc nuw nsw i64 %indvars.iv59 to i32
  %33 = lshr i64 %indvars.iv59, 4
  %34 = and i64 %33, 268435455
  %35 = getelementptr inbounds nuw i32, ptr %1, i64 %34
  %36 = load i32, ptr %35, align 4
  %indvars.iv59.tr = trunc i64 %indvars.iv59 to i32
  %37 = shl i32 %indvars.iv59.tr, 1
  %38 = and i32 %37, 30
  %39 = lshr i32 %36, %38
  %40 = and i32 %39, 3
  %.not = icmp eq i32 %40, 3
  br i1 %.not, label %83, label %41

41:                                               ; preds = %30
  %42 = load ptr, ptr %8, align 8
  %43 = getelementptr inbounds nuw i8, ptr %42, i64 %indvars.iv59
  %44 = load i8, ptr %43, align 1
  %.not38 = icmp eq i8 %44, 0
  br i1 %.not38, label %45, label %83

45:                                               ; preds = %41
  %46 = load ptr, ptr %9, align 8
  %47 = getelementptr inbounds nuw i32, ptr %46, i64 %indvars.iv59
  %48 = load i32, ptr %47, align 4
  %49 = icmp eq i32 %.1, %48
  br i1 %49, label %50, label %83

50:                                               ; preds = %45
  store i8 1, ptr %43, align 1
  %51 = load ptr, ptr %10, align 8
  %52 = getelementptr inbounds nuw i8, ptr %51, i64 4
  %53 = load i32, ptr %52, align 4
  %54 = load i32, ptr %51, align 8
  %55 = icmp eq i32 %53, %54
  br i1 %55, label %56, label %.Vec_IntGrow.exit10_crit_edge.i

.Vec_IntGrow.exit10_crit_edge.i:                  ; preds = %50
  %.phi.trans.insert.i = getelementptr inbounds nuw i8, ptr %51, i64 8
  %.pre.i = load ptr, ptr %.phi.trans.insert.i, align 8
  br label %Vec_IntPush.exit

56:                                               ; preds = %50
  %57 = icmp slt i32 %53, 16
  br i1 %57, label %58, label %66

58:                                               ; preds = %56
  %59 = getelementptr inbounds nuw i8, ptr %51, i64 8
  %60 = load ptr, ptr %59, align 8
  %.not9.i.i = icmp eq ptr %60, null
  br i1 %.not9.i.i, label %63, label %61

61:                                               ; preds = %58
  %62 = tail call dereferenceable_or_null(64) ptr @realloc(ptr noundef nonnull %60, i64 noundef 64) #24
  br label %Vec_IntGrow.exit.i

63:                                               ; preds = %58
  %64 = tail call noalias dereferenceable_or_null(64) ptr @malloc(i64 noundef 64) #23
  br label %Vec_IntGrow.exit.i

Vec_IntGrow.exit.i:                               ; preds = %63, %61
  %65 = phi ptr [ %62, %61 ], [ %64, %63 ]
  store ptr %65, ptr %59, align 8
  store i32 16, ptr %51, align 8
  br label %Vec_IntPush.exit

66:                                               ; preds = %56
  %67 = shl nuw nsw i32 %53, 1
  %68 = getelementptr inbounds nuw i8, ptr %51, i64 8
  %69 = load ptr, ptr %68, align 8
  %.not9.i9.i = icmp eq ptr %69, null
  %70 = zext nneg i32 %67 to i64
  %71 = shl nuw nsw i64 %70, 2
  br i1 %.not9.i9.i, label %74, label %72

72:                                               ; preds = %66
  %73 = tail call ptr @realloc(ptr noundef nonnull %69, i64 noundef %71) #24
  br label %76

74:                                               ; preds = %66
  %75 = tail call noalias ptr @malloc(i64 noundef %71) #23
  br label %76

76:                                               ; preds = %74, %72
  %77 = phi ptr [ %73, %72 ], [ %75, %74 ]
  store ptr %77, ptr %68, align 8
  store i32 %67, ptr %51, align 8
  br label %Vec_IntPush.exit

Vec_IntPush.exit:                                 ; preds = %.Vec_IntGrow.exit10_crit_edge.i, %Vec_IntGrow.exit.i, %76
  %78 = phi ptr [ %.pre.i, %.Vec_IntGrow.exit10_crit_edge.i ], [ %77, %76 ], [ %65, %Vec_IntGrow.exit.i ]
  %79 = load i32, ptr %52, align 4
  %80 = add nsw i32 %79, 1
  store i32 %80, ptr %52, align 4
  %81 = sext i32 %79 to i64
  %82 = getelementptr inbounds i32, ptr %78, i64 %81
  store i32 %32, ptr %82, align 4
  br i1 %11, label %Vec_IntPush.exit._crit_edge, label %Vec_IntPush.exit._crit_edge65

Vec_IntPush.exit._crit_edge65:                    ; preds = %Vec_IntPush.exit
  %.pre = load ptr, ptr %0, align 8
  br label %83

83:                                               ; preds = %Vec_IntPush.exit._crit_edge65, %30, %41, %45
  %84 = phi ptr [ %.pre, %Vec_IntPush.exit._crit_edge65 ], [ %31, %30 ], [ %31, %41 ], [ %31, %45 ]
  %indvars.iv.next60 = add nuw nsw i64 %indvars.iv59, 1
  %85 = getelementptr i8, ptr %84, i64 16
  %.val42 = load i32, ptr %85, align 8
  %86 = sext i32 %.val42 to i64
  %87 = icmp slt i64 %indvars.iv.next60, %86
  br i1 %87, label %30, label %Vec_IntPush.exit._crit_edge, !llvm.loop !12

Vec_IntPush.exit._crit_edge:                      ; preds = %83, %Vec_IntPush.exit, %2
  %88 = getelementptr inbounds nuw i8, ptr %0, i64 32
  %89 = load ptr, ptr %88, align 8
  %90 = getelementptr i8, ptr %89, i64 4
  %.val52 = load i32, ptr %90, align 4
  %91 = icmp sgt i32 %.val52, 0
  br i1 %91, label %.lr.ph55, label %.critedge

.lr.ph55:                                         ; preds = %Vec_IntPush.exit._crit_edge
  %92 = getelementptr inbounds nuw i8, ptr %0, i64 88
  br label %93

93:                                               ; preds = %.lr.ph55, %93
  %indvars.iv62 = phi i64 [ 0, %.lr.ph55 ], [ %indvars.iv.next63, %93 ]
  %94 = phi ptr [ %89, %.lr.ph55 ], [ %116, %93 ]
  %95 = getelementptr i8, ptr %94, i64 8
  %.val46 = load ptr, ptr %95, align 8
  %96 = getelementptr inbounds nuw i32, ptr %.val46, i64 %indvars.iv62
  %97 = load i32, ptr %96, align 4
  %98 = load ptr, ptr %92, align 8
  %99 = load ptr, ptr %0, align 8
  %100 = getelementptr i8, ptr %99, i64 16
  %.val44 = load i32, ptr %100, align 8
  %101 = getelementptr i8, ptr %99, i64 64
  %.val45 = load ptr, ptr %101, align 8
  %102 = getelementptr i8, ptr %.val45, i64 4
  %.val45.val = load i32, ptr %102, align 4
  %103 = sub nsw i32 %.val45.val, %.val44
  %104 = add nsw i32 %103, %97
  %105 = ashr i32 %104, 4
  %106 = sext i32 %105 to i64
  %107 = getelementptr inbounds i32, ptr %98, i64 %106
  %108 = load i32, ptr %107, align 4
  %109 = shl i32 %104, 1
  %110 = and i32 %109, 30
  %111 = lshr i32 %108, %110
  %112 = and i32 %111, 3
  %113 = xor i32 %112, 3
  %114 = shl nuw i32 %113, %110
  %115 = xor i32 %114, %108
  store i32 %115, ptr %107, align 4
  %indvars.iv.next63 = add nuw nsw i64 %indvars.iv62, 1
  %116 = load ptr, ptr %88, align 8
  %117 = getelementptr i8, ptr %116, i64 4
  %.val = load i32, ptr %117, align 4
  %118 = sext i32 %.val to i64
  %119 = icmp slt i64 %indvars.iv.next63, %118
  br i1 %119, label %93, label %.critedge, !llvm.loop !13

.critedge:                                        ; preds = %93, %Vec_IntPush.exit._crit_edge
  %.val.lcssa = phi i32 [ %.val52, %Vec_IntPush.exit._crit_edge ], [ %.val, %93 ]
  ret i32 %.val.lcssa
}